target datalayout = "e-m:e-p270:32:32-p271:32:32-p272:64:64-i64:64-i128:128-f80:128-n8:16:32:64-S128"
target triple = "x86_64-pc-linux-gnu"

%struct.t_enxframe = type { double, i64, i64, double, i32, i32, i32, i32, ptr, i32, ptr, i32 }
%struct.t_enxblock = type { i32, i32, ptr, i32 }
%struct.t_enxsubblock = type { i32, i32, ptr, ptr, ptr, ptr, ptr, ptr, i32, i32, i32, i32, i32, i32 }

@.str.8 = private unnamed_addr constant [9 x i8] c"fr->ener\00", align 1
@.str.9 = private unnamed_addr constant [122 x i8] c"generated/home/dtcxzyw/WorkSpace/Projects/compilers/llvm-opt-benchmark/bench/gromacs/gromacs/src/gromacs/fileio/enxio.cpp\00", align 1
@.str.10 = private unnamed_addr constant [10 x i8] c"fr->block\00", align 1
@.str.11 = private unnamed_addr constant [8 x i8] c"eb->sub\00", align 1
@.str.12 = private unnamed_addr constant [9 x i8] c"sb->fval\00", align 1
@.str.13 = private unnamed_addr constant [9 x i8] c"sb->dval\00", align 1
@.str.14 = private unnamed_addr constant [9 x i8] c"sb->ival\00", align 1
@.str.15 = private unnamed_addr constant [9 x i8] c"sb->lval\00", align 1
@.str.16 = private unnamed_addr constant [9 x i8] c"sb->cval\00", align 1
@.str.17 = private unnamed_addr constant [12 x i8] c"sb->sval[i]\00", align 1
@.str.18 = private unnamed_addr constant [9 x i8] c"sb->sval\00", align 1

; Function Attrs: mustprogress uwtable
define internal void @_ZL14gmx_sfree_implIPcEvPKcS2_iPT_(ptr noundef %0, ptr noundef %1, i32 noundef %2, ptr noundef %3) #1 {
  %5 = alloca ptr, align 8
  %6 = alloca ptr, align 8
  %7 = alloca i32, align 4
  %8 = alloca ptr, align 8
  store ptr %0, ptr %5, align 8
  store ptr %1, ptr %6, align 8
  store i32 %2, ptr %7, align 4
  store ptr %3, ptr %8, align 8
  %9 = load ptr, ptr %5, align 8
  %10 = load ptr, ptr %6, align 8
  %11 = load i32, ptr %7, align 4
  %12 = load ptr, ptr %8, align 8
  call void @_Z9save_freePKcS0_iPv(ptr noundef %9, ptr noundef %10, i32 noundef %11, ptr noundef %12)
  ret void
}

; Function Attrs: mustprogress uwtable
define internal void @_ZL14gmx_sfree_implIcEvPKcS1_iPT_(ptr noundef %0, ptr noundef %1, i32 noundef %2, ptr noundef %3) #1 {
  %5 = alloca ptr, align 8
  %6 = alloca ptr, align 8
  %7 = alloca i32, align 4
  %8 = alloca ptr, align 8
  store ptr %0, ptr %5, align 8
  store ptr %1, ptr %6, align 8
  store i32 %2, ptr %7, align 4
  store ptr %3, ptr %8, align 8
  %9 = load ptr, ptr %5, align 8
  %10 = load ptr, ptr %6, align 8
  %11 = load i32, ptr %7, align 4
  %12 = load ptr, ptr %8, align 8
  call void @_Z9save_freePKcS0_iPv(ptr noundef %9, ptr noundef %10, i32 noundef %11, ptr noundef %12)
  ret void
}

; Function Attrs: mustprogress uwtable
define internal void @_ZL14gmx_sfree_implIhEvPKcS1_iPT_(ptr noundef %0, ptr noundef %1, i32 noundef %2, ptr noundef %3) #1 {
  %5 = alloca ptr, align 8
  %6 = alloca ptr, align 8
  %7 = alloca i32, align 4
  %8 = alloca ptr, align 8
  store ptr %0, ptr %5, align 8
  store ptr %1, ptr %6, align 8
  store i32 %2, ptr %7, align 4
  store ptr %3, ptr %8, align 8
  %9 = load ptr, ptr %5, align 8
  %10 = load ptr, ptr %6, align 8
  %11 = load i32, ptr %7, align 4
  %12 = load ptr, ptr %8, align 8
  call void @_Z9save_freePKcS0_iPv(ptr noundef %9, ptr noundef %10, i32 noundef %11, ptr noundef %12)
  ret void
}

; Function Attrs: mustprogress uwtable
define internal void @_ZL14gmx_sfree_implIlEvPKcS1_iPT_(ptr noundef %0, ptr noundef %1, i32 noundef %2, ptr noundef %3) #1 {
  %5 = alloca ptr, align 8
  %6 = alloca ptr, align 8
  %7 = alloca i32, align 4
  %8 = alloca ptr, align 8
  store ptr %0, ptr %5, align 8
  store ptr %1, ptr %6, align 8
  store i32 %2, ptr %7, align 4
  store ptr %3, ptr %8, align 8
  %9 = load ptr, ptr %5, align 8
  %10 = load ptr, ptr %6, align 8
  %11 = load i32, ptr %7, align 4
  %12 = load ptr, ptr %8, align 8
  call void @_Z9save_freePKcS0_iPv(ptr noundef %9, ptr noundef %10, i32 noundef %11, ptr noundef %12)
  ret void
}

; Function Attrs: mustprogress uwtable
define internal void @_ZL14gmx_sfree_implIiEvPKcS1_iPT_(ptr noundef %0, ptr noundef %1, i32 noundef %2, ptr noundef %3) #1 {
  %5 = alloca ptr, align 8
  %6 = alloca ptr, align 8
  %7 = alloca i32, align 4
  %8 = alloca ptr, align 8
  store ptr %0, ptr %5, align 8
  store ptr %1, ptr %6, align 8
  store i32 %2, ptr %7, align 4
  store ptr %3, ptr %8, align 8
  %9 = load ptr, ptr %5, align 8
  %10 = load ptr, ptr %6, align 8
  %11 = load i32, ptr %7, align 4
  %12 = load ptr, ptr %8, align 8
  call void @_Z9save_freePKcS0_iPv(ptr noundef %9, ptr noundef %10, i32 noundef %11, ptr noundef %12)
  ret void
}

; Function Attrs: mustprogress uwtable
define internal void @_ZL14gmx_sfree_implIdEvPKcS1_iPT_(ptr noundef %0, ptr noundef %1, i32 noundef %2, ptr noundef %3) #1 {
  %5 = alloca ptr, align 8
  %6 = alloca ptr, align 8
  %7 = alloca i32, align 4
  %8 = alloca ptr, align 8
  store ptr %0, ptr %5, align 8
  store ptr %1, ptr %6, align 8
  store i32 %2, ptr %7, align 4
  store ptr %3, ptr %8, align 8
  %9 = load ptr, ptr %5, align 8
  %10 = load ptr, ptr %6, align 8
  %11 = load i32, ptr %7, align 4
  %12 = load ptr, ptr %8, align 8
  call void @_Z9save_freePKcS0_iPv(ptr noundef %9, ptr noundef %10, i32 noundef %11, ptr noundef %12)
  ret void
}

; Function Attrs: mustprogress uwtable
define internal void @_ZL14gmx_sfree_implIfEvPKcS1_iPT_(ptr noundef %0, ptr noundef %1, i32 noundef %2, ptr noundef %3) #1 {
  %5 = alloca ptr, align 8
  %6 = alloca ptr, align 8
  %7 = alloca i32, align 4
  %8 = alloca ptr, align 8
  store ptr %0, ptr %5, align 8
  store ptr %1, ptr %6, align 8
  store i32 %2, ptr %7, align 4
  store ptr %3, ptr %8, align 8
  %9 = load ptr, ptr %5, align 8
  %10 = load ptr, ptr %6, align 8
  %11 = load i32, ptr %7, align 4
  %12 = load ptr, ptr %8, align 8
  call void @_Z9save_freePKcS0_iPv(ptr noundef %9, ptr noundef %10, i32 noundef %11, ptr noundef %12)
  ret void
}

; Function Attrs: mustprogress uwtable
define internal void @_ZL14gmx_sfree_implI13t_enxsubblockEvPKcS2_iPT_(ptr noundef %0, ptr noundef %1, i32 noundef %2, ptr noundef %3) #1 {
  %5 = alloca ptr, align 8
  %6 = alloca ptr, align 8
  %7 = alloca i32, align 4
  %8 = alloca ptr, align 8
  store ptr %0, ptr %5, align 8
  store ptr %1, ptr %6, align 8
  store i32 %2, ptr %7, align 4
  store ptr %3, ptr %8, align 8
  %9 = load ptr, ptr %5, align 8
  %10 = load ptr, ptr %6, align 8
  %11 = load i32, ptr %7, align 4
  %12 = load ptr, ptr %8, align 8
  call void @_Z9save_freePKcS0_iPv(ptr noundef %9, ptr noundef %10, i32 noundef %11, ptr noundef %12)
  ret void
}

; Function Attrs: mustprogress uwtable
define internal void @_ZL16enxsubblock_freeP13t_enxsubblock(ptr noundef %0) #1 {
  %2 = alloca ptr, align 8
  %3 = alloca i32, align 4
  store ptr %0, ptr %2, align 8
  %4 = load ptr, ptr %2, align 8
  %5 = getelementptr inbounds %struct.t_enxsubblock, ptr %4, i32 0, i32 8
  %6 = load i32, ptr %5, align 8
  %7 = icmp ne i32 %6, 0
  br i1 %7, label %8, label %16

8:                                                ; preds = %1
  %9 = load ptr, ptr %2, align 8
  %10 = getelementptr inbounds %struct.t_enxsubblock, ptr %9, i32 0, i32 2
  %11 = load ptr, ptr %10, align 8
  call void @_ZL14gmx_sfree_implIfEvPKcS1_iPT_(ptr noundef @.str.12, ptr noundef @.str.9, i32 noundef 121, ptr noundef %11)
  %12 = load ptr, ptr %2, align 8
  %13 = getelementptr inbounds %struct.t_enxsubblock, ptr %12, i32 0, i32 8
  store i32 0, ptr %13, align 8
  %14 = load ptr, ptr %2, align 8
  %15 = getelementptr inbounds %struct.t_enxsubblock, ptr %14, i32 0, i32 2
  store ptr null, ptr %15, align 8
  br label %16

16:                                               ; preds = %8, %1
  %17 = load ptr, ptr %2, align 8
  %18 = getelementptr inbounds %struct.t_enxsubblock, ptr %17, i32 0, i32 9
  %19 = load i32, ptr %18, align 4
  %20 = icmp ne i32 %19, 0
  br i1 %20, label %21, label %29

21:                                               ; preds = %16
  %22 = load ptr, ptr %2, align 8
  %23 = getelementptr inbounds %struct.t_enxsubblock, ptr %22, i32 0, i32 3
  %24 = load ptr, ptr %23, align 8
  call void @_ZL14gmx_sfree_implIdEvPKcS1_iPT_(ptr noundef @.str.13, ptr noundef @.str.9, i32 noundef 127, ptr noundef %24)
  %25 = load ptr, ptr %2, align 8
  %26 = getelementptr inbounds %struct.t_enxsubblock, ptr %25, i32 0, i32 9
  store i32 0, ptr %26, align 4
  %27 = load ptr, ptr %2, align 8
  %28 = getelementptr inbounds %struct.t_enxsubblock, ptr %27, i32 0, i32 3
  store ptr null, ptr %28, align 8
  br label %29

29:                                               ; preds = %21, %16
  %30 = load ptr, ptr %2, align 8
  %31 = getelementptr inbounds %struct.t_enxsubblock, ptr %30, i32 0, i32 10
  %32 = load i32, ptr %31, align 8
  %33 = icmp ne i32 %32, 0
  br i1 %33, label %34, label %42

34:                                               ; preds = %29
  %35 = load ptr, ptr %2, align 8
  %36 = getelementptr inbounds %struct.t_enxsubblock, ptr %35, i32 0, i32 4
  %37 = load ptr, ptr %36, align 8
  call void @_ZL14gmx_sfree_implIiEvPKcS1_iPT_(ptr noundef @.str.14, ptr noundef @.str.9, i32 noundef 133, ptr noundef %37)
  %38 = load ptr, ptr %2, align 8
  %39 = getelementptr inbounds %struct.t_enxsubblock, ptr %38, i32 0, i32 10
  store i32 0, ptr %39, align 8
  %40 = load ptr, ptr %2, align 8
  %41 = getelementptr inbounds %struct.t_enxsubblock, ptr %40, i32 0, i32 4
  store ptr null, ptr %41, align 8
  br label %42

42:                                               ; preds = %34, %29
  %43 = load ptr, ptr %2, align 8
  %44 = getelementptr inbounds %struct.t_enxsubblock, ptr %43, i32 0, i32 11
  %45 = load i32, ptr %44, align 4
  %46 = icmp ne i32 %45, 0
  br i1 %46, label %47, label %55

47:                                               ; preds = %42
  %48 = load ptr, ptr %2, align 8
  %49 = getelementptr inbounds %struct.t_enxsubblock, ptr %48, i32 0, i32 5
  %50 = load ptr, ptr %49, align 8
  call void @_ZL14gmx_sfree_implIlEvPKcS1_iPT_(ptr noundef @.str.15, ptr noundef @.str.9, i32 noundef 139, ptr noundef %50)
  %51 = load ptr, ptr %2, align 8
  %52 = getelementptr inbounds %struct.t_enxsubblock, ptr %51, i32 0, i32 11
  store i32 0, ptr %52, align 4
  %53 = load ptr, ptr %2, align 8
  %54 = getelementptr inbounds %struct.t_enxsubblock, ptr %53, i32 0, i32 5
  store ptr null, ptr %54, align 8
  br label %55

55:                                               ; preds = %47, %42
  %56 = load ptr, ptr %2, align 8
  %57 = getelementptr inbounds %struct.t_enxsubblock, ptr %56, i32 0, i32 12
  %58 = load i32, ptr %57, align 8
  %59 = icmp ne i32 %58, 0
  br i1 %59, label %60, label %68

60:                                               ; preds = %55
  %61 = load ptr, ptr %2, align 8
  %62 = getelementptr inbounds %struct.t_enxsubblock, ptr %61, i32 0, i32 6
  %63 = load ptr, ptr %62, align 8
  call void @_ZL14gmx_sfree_implIhEvPKcS1_iPT_(ptr noundef @.str.16, ptr noundef @.str.9, i32 noundef 145, ptr noundef %63)
  %64 = load ptr, ptr %2, align 8
  %65 = getelementptr inbounds %struct.t_enxsubblock, ptr %64, i32 0, i32 12
  store i32 0, ptr %65, align 8
  %66 = load ptr, ptr %2, align 8
  %67 = getelementptr inbounds %struct.t_enxsubblock, ptr %66, i32 0, i32 6
  store ptr null, ptr %67, align 8
  br label %68

68:                                               ; preds = %60, %55
  %69 = load ptr, ptr %2, align 8
  %70 = getelementptr inbounds %struct.t_enxsubblock, ptr %69, i32 0, i32 13
  %71 = load i32, ptr %70, align 4
  %72 = icmp ne i32 %71, 0
  br i1 %72, label %73, label %109

73:                                               ; preds = %68
  store i32 0, ptr %3, align 4
  br label %74

74:                                               ; preds = %98, %73
  %75 = load i32, ptr %3, align 4
  %76 = load ptr, ptr %2, align 8
  %77 = getelementptr inbounds %struct.t_enxsubblock, ptr %76, i32 0, i32 13
  %78 = load i32, ptr %77, align 4
  %79 = icmp slt i32 %75, %78
  br i1 %79, label %80, label %101

80:                                               ; preds = %74
  %81 = load ptr, ptr %2, align 8
  %82 = getelementptr inbounds %struct.t_enxsubblock, ptr %81, i32 0, i32 7
  %83 = load ptr, ptr %82, align 8
  %84 = load i32, ptr %3, align 4
  %85 = sext i32 %84 to i64
  %86 = getelementptr inbounds ptr, ptr %83, i64 %85
  %87 = load ptr, ptr %86, align 8
  %88 = icmp ne ptr %87, null
  br i1 %88, label %89, label %97

89:                                               ; preds = %80
  %90 = load ptr, ptr %2, align 8
  %91 = getelementptr inbounds %struct.t_enxsubblock, ptr %90, i32 0, i32 7
  %92 = load ptr, ptr %91, align 8
  %93 = load i32, ptr %3, align 4
  %94 = sext i32 %93 to i64
  %95 = getelementptr inbounds ptr, ptr %92, i64 %94
  %96 = load ptr, ptr %95, align 8
  call void @_ZL14gmx_sfree_implIcEvPKcS1_iPT_(ptr noundef @.str.17, ptr noundef @.str.9, i32 noundef 157, ptr noundef %96)
  br label %97

97:                                               ; preds = %89, %80
  br label %98

98:                                               ; preds = %97
  %99 = load i32, ptr %3, align 4
  %100 = add nsw i32 %99, 1
  store i32 %100, ptr %3, align 4
  br label %74, !llvm.loop !8

101:                                              ; preds = %74
  %102 = load ptr, ptr %2, align 8
  %103 = getelementptr inbounds %struct.t_enxsubblock, ptr %102, i32 0, i32 7
  %104 = load ptr, ptr %103, align 8
  call void @_ZL14gmx_sfree_implIPcEvPKcS2_iPT_(ptr noundef @.str.18, ptr noundef @.str.9, i32 noundef 160, ptr noundef %104)
  %105 = load ptr, ptr %2, align 8
  %106 = getelementptr inbounds %struct.t_enxsubblock, ptr %105, i32 0, i32 13
  store i32 0, ptr %106, align 4
  %107 = load ptr, ptr %2, align 8
  %108 = getelementptr inbounds %struct.t_enxsubblock, ptr %107, i32 0, i32 7
  store ptr null, ptr %108, align 8
  br label %109

109:                                              ; preds = %101, %68
  ret void
}

; Function Attrs: mustprogress uwtable
define internal void @_ZL14gmx_sfree_implI10t_enxblockEvPKcS2_iPT_(ptr noundef %0, ptr noundef %1, i32 noundef %2, ptr noundef %3) #1 {
  %5 = alloca ptr, align 8
  %6 = alloca ptr, align 8
  %7 = alloca i32, align 4
  %8 = alloca ptr, align 8
  store ptr %0, ptr %5, align 8
  store ptr %1, ptr %6, align 8
  store i32 %2, ptr %7, align 4
  store ptr %3, ptr %8, align 8
  %9 = load ptr, ptr %5, align 8
  %10 = load ptr, ptr %6, align 8
  %11 = load i32, ptr %7, align 4
  %12 = load ptr, ptr %8, align 8
  call void @_Z9save_freePKcS0_iPv(ptr noundef %9, ptr noundef %10, i32 noundef %11, ptr noundef %12)
  ret void
}

; Function Attrs: mustprogress uwtable
define internal void @_ZL13enxblock_freeP10t_enxblock(ptr noundef %0) #1 {
  %2 = alloca ptr, align 8
  %3 = alloca i32, align 4
  store ptr %0, ptr %2, align 8
  %4 = load ptr, ptr %2, align 8
  %5 = getelementptr inbounds %struct.t_enxblock, ptr %4, i32 0, i32 3
  %6 = load i32, ptr %5, align 8
  %7 = icmp sgt i32 %6, 0
  br i1 %7, label %8, label %33

8:                                                ; preds = %1
  store i32 0, ptr %3, align 4
  br label %9

9:                                                ; preds = %22, %8
  %10 = load i32, ptr %3, align 4
  %11 = load ptr, ptr %2, align 8
  %12 = getelementptr inbounds %struct.t_enxblock, ptr %11, i32 0, i32 3
  %13 = load i32, ptr %12, align 8
  %14 = icmp slt i32 %10, %13
  br i1 %14, label %15, label %25

15:                                               ; preds = %9
  %16 = load ptr, ptr %2, align 8
  %17 = getelementptr inbounds %struct.t_enxblock, ptr %16, i32 0, i32 2
  %18 = load ptr, ptr %17, align 8
  %19 = load i32, ptr %3, align 4
  %20 = sext i32 %19 to i64
  %21 = getelementptr inbounds %struct.t_enxsubblock, ptr %18, i64 %20
  call void @_ZL16enxsubblock_freeP13t_enxsubblock(ptr noundef %21)
  br label %22

22:                                               ; preds = %15
  %23 = load i32, ptr %3, align 4
  %24 = add nsw i32 %23, 1
  store i32 %24, ptr %3, align 4
  br label %9, !llvm.loop !7

25:                                               ; preds = %9
  %26 = load ptr, ptr %2, align 8
  %27 = getelementptr inbounds %struct.t_enxblock, ptr %26, i32 0, i32 2
  %28 = load ptr, ptr %27, align 8
  call void @_ZL14gmx_sfree_implI13t_enxsubblockEvPKcS2_iPT_(ptr noundef @.str.11, ptr noundef @.str.9, i32 noundef 241, ptr noundef %28)
  %29 = load ptr, ptr %2, align 8
  %30 = getelementptr inbounds %struct.t_enxblock, ptr %29, i32 0, i32 3
  store i32 0, ptr %30, align 8
  %31 = load ptr, ptr %2, align 8
  %32 = getelementptr inbounds %struct.t_enxblock, ptr %31, i32 0, i32 2
  store ptr null, ptr %32, align 8
  br label %33

33:                                               ; preds = %25, %1
  ret void
}

; Function Attrs: mustprogress uwtable
define internal void @_ZL14gmx_sfree_implI8t_energyEvPKcS2_iPT_(ptr noundef %0, ptr noundef %1, i32 noundef %2, ptr noundef %3) #1 {
  %5 = alloca ptr, align 8
  %6 = alloca ptr, align 8
  %7 = alloca i32, align 4
  %8 = alloca ptr, align 8
  store ptr %0, ptr %5, align 8
  store ptr %1, ptr %6, align 8
  store i32 %2, ptr %7, align 4
  store ptr %3, ptr %8, align 8
  %9 = load ptr, ptr %5, align 8
  %10 = load ptr, ptr %6, align 8
  %11 = load i32, ptr %7, align 4
  %12 = load ptr, ptr %8, align 8
  call void @_Z9save_freePKcS0_iPv(ptr noundef %9, ptr noundef %10, i32 noundef %11, ptr noundef %12)
  ret void
}

; Function Attrs: mustprogress uwtable
define void @_Z13free_enxframeP10t_enxframe(ptr noundef %0) #1 {
  %2 = alloca ptr, align 8
  %3 = alloca i32, align 4
  store ptr %0, ptr %2, align 8
  %4 = load ptr, ptr %2, align 8
  %5 = getelementptr inbounds %struct.t_enxframe, ptr %4, i32 0, i32 7
  %6 = load i32, ptr %5, align 4
  %7 = icmp ne i32 %6, 0
  br i1 %7, label %8, label %12

8:                                                ; preds = %1
  %9 = load ptr, ptr %2, align 8
  %10 = getelementptr inbounds %struct.t_enxframe, ptr %9, i32 0, i32 8
  %11 = load ptr, ptr %10, align 8
  call void @_ZL14gmx_sfree_implI8t_energyEvPKcS2_iPT_(ptr noundef @.str.8, ptr noundef @.str.9, i32 noundef 267, ptr noundef %11)
  br label %12

12:                                               ; preds = %8, %1
  store i32 0, ptr %3, align 4
  br label %13

13:                                               ; preds = %26, %12
  %14 = load i32, ptr %3, align 4
  %15 = load ptr, ptr %2, align 8
  %16 = getelementptr inbounds %struct.t_enxframe, ptr %15, i32 0, i32 11
  %17 = load i32, ptr %16, align 8
  %18 = icmp slt i32 %14, %17
  br i1 %18, label %19, label %29

19:                                               ; preds = %13
  %20 = load ptr, ptr %2, align 8
  %21 = getelementptr inbounds %struct.t_enxframe, ptr %20, i32 0, i32 10
  %22 = load ptr, ptr %21, align 8
  %23 = load i32, ptr %3, align 4
  %24 = sext i32 %23 to i64
  %25 = getelementptr inbounds %struct.t_enxblock, ptr %22, i64 %24
  call void @_ZL13enxblock_freeP10t_enxblock(ptr noundef %25)
  br label %26

26:                                               ; preds = %19
  %27 = load i32, ptr %3, align 4
  %28 = add nsw i32 %27, 1
  store i32 %28, ptr %3, align 4
  br label %13, !llvm.loop !5

29:                                               ; preds = %13
  %30 = load ptr, ptr %2, align 8
  %31 = getelementptr inbounds %struct.t_enxframe, ptr %30, i32 0, i32 10
  %32 = load ptr, ptr %31, align 8
  call void @_ZL14gmx_sfree_implI10t_enxblockEvPKcS2_iPT_(ptr noundef @.str.10, ptr noundef @.str.9, i32 noundef 273, ptr noundef %32)
  ret void
}