; Function Attrs: mustprogress uwtable
define void @_Z13free_enxframeP10t_enxframe(ptr nocapture noundef readonly %0) local_unnamed_addr #1 {
  %2 = getelementptr inbounds i8, ptr %0, i64 44
  %3 = load i32, ptr %2, align 4
  %.not = icmp eq i32 %3, 0
  br i1 %.not, label %7, label %4

4:                                                ; preds = %1
  %5 = getelementptr inbounds i8, ptr %0, i64 48
  %6 = load ptr, ptr %5, align 8
  tail call void @_Z9save_freePKcS0_iPv(ptr noundef nonnull @.str.8, ptr noundef nonnull @.str.9, i32 noundef 267, ptr noundef %6)
  br label %7

7:                                                ; preds = %4, %1
  %8 = getelementptr inbounds i8, ptr %0, i64 72
  %9 = load i32, ptr %8, align 8
  %10 = icmp sgt i32 %9, 0
  br i1 %10, label %.lr.ph, label %._crit_edge

.lr.ph:                                           ; preds = %7
  %11 = getelementptr inbounds i8, ptr %0, i64 64
  br label %12

12:                                               ; preds = %.lr.ph, %_ZL13enxblock_freeP10t_enxblock.exit
  %13 = phi i32 [ %9, %.lr.ph ], [ %73, %_ZL13enxblock_freeP10t_enxblock.exit ]
  %indvars.iv = phi i64 [ 0, %.lr.ph ], [ %indvars.iv.next, %_ZL13enxblock_freeP10t_enxblock.exit ]
  %14 = load ptr, ptr %11, align 8
  %15 = getelementptr inbounds %struct.t_enxblock, ptr %14, i64 %indvars.iv
  %16 = getelementptr inbounds i8, ptr %15, i64 16
  %17 = load i32, ptr %16, align 8
  %18 = icmp sgt i32 %17, 0
  br i1 %18, label %.lr.ph.i, label %_ZL13enxblock_freeP10t_enxblock.exit

.lr.ph.i:                                         ; preds = %12
  %19 = getelementptr inbounds i8, ptr %15, i64 8
  br label %20

20:                                               ; preds = %_ZL16enxsubblock_freeP13t_enxsubblock.exit.i, %.lr.ph.i
  %indvars.iv.i = phi i64 [ 0, %.lr.ph.i ], [ %indvars.iv.next.i, %_ZL16enxsubblock_freeP13t_enxsubblock.exit.i ]
  %21 = load ptr, ptr %19, align 8
  %22 = getelementptr inbounds %struct.t_enxsubblock, ptr %21, i64 %indvars.iv.i
  %23 = getelementptr inbounds i8, ptr %22, i64 56
  %24 = load i32, ptr %23, align 8
  %.not.i.i = icmp eq i32 %24, 0
  br i1 %.not.i.i, label %28, label %25

25:                                               ; preds = %20
  %26 = getelementptr inbounds i8, ptr %22, i64 8
  %27 = load ptr, ptr %26, align 8
  tail call void @_Z9save_freePKcS0_iPv(ptr noundef nonnull @.str.12, ptr noundef nonnull @.str.9, i32 noundef 121, ptr noundef %27)
  store i32 0, ptr %23, align 8
  store ptr null, ptr %26, align 8
  br label %28

28:                                               ; preds = %25, %20
  %29 = getelementptr inbounds i8, ptr %22, i64 60
  %30 = load i32, ptr %29, align 4
  %.not31.i.i = icmp eq i32 %30, 0
  br i1 %.not31.i.i, label %34, label %31

31:                                               ; preds = %28
  %32 = getelementptr inbounds i8, ptr %22, i64 16
  %33 = load ptr, ptr %32, align 8
  tail call void @_Z9save_freePKcS0_iPv(ptr noundef nonnull @.str.13, ptr noundef nonnull @.str.9, i32 noundef 127, ptr noundef %33)
  store i32 0, ptr %29, align 4
  store ptr null, ptr %32, align 8
  br label %34

34:                                               ; preds = %31, %28
  %35 = getelementptr inbounds i8, ptr %22, i64 64
  %36 = load i32, ptr %35, align 8
  %.not32.i.i = icmp eq i32 %36, 0
  br i1 %.not32.i.i, label %40, label %37

37:                                               ; preds = %34
  %38 = getelementptr inbounds i8, ptr %22, i64 24
  %39 = load ptr, ptr %38, align 8
  tail call void @_Z9save_freePKcS0_iPv(ptr noundef nonnull @.str.14, ptr noundef nonnull @.str.9, i32 noundef 133, ptr noundef %39)
  store i32 0, ptr %35, align 8
  store ptr null, ptr %38, align 8
  br label %40

40:                                               ; preds = %37, %34
  %41 = getelementptr inbounds i8, ptr %22, i64 68
  %42 = load i32, ptr %41, align 4
  %.not33.i.i = icmp eq i32 %42, 0
  br i1 %.not33.i.i, label %46, label %43

43:                                               ; preds = %40
  %44 = getelementptr inbounds i8, ptr %22, i64 32
  %45 = load ptr, ptr %44, align 8
  tail call void @_Z9save_freePKcS0_iPv(ptr noundef nonnull @.str.15, ptr noundef nonnull @.str.9, i32 noundef 139, ptr noundef %45)
  store i32 0, ptr %41, align 4
  store ptr null, ptr %44, align 8
  br label %46

46:                                               ; preds = %43, %40
  %47 = getelementptr inbounds i8, ptr %22, i64 72
  %48 = load i32, ptr %47, align 8
  %.not34.i.i = icmp eq i32 %48, 0
  br i1 %.not34.i.i, label %52, label %49

49:                                               ; preds = %46
  %50 = getelementptr inbounds i8, ptr %22, i64 40
  %51 = load ptr, ptr %50, align 8
  tail call void @_Z9save_freePKcS0_iPv(ptr noundef nonnull @.str.16, ptr noundef nonnull @.str.9, i32 noundef 145, ptr noundef %51)
  store i32 0, ptr %47, align 8
  store ptr null, ptr %50, align 8
  br label %52

52:                                               ; preds = %49, %46
  %53 = getelementptr inbounds i8, ptr %22, i64 76
  %54 = load i32, ptr %53, align 4
  %.not35.i.i = icmp eq i32 %54, 0
  br i1 %.not35.i.i, label %_ZL16enxsubblock_freeP13t_enxsubblock.exit.i, label %.preheader.i.i

.preheader.i.i:                                   ; preds = %52
  %55 = icmp sgt i32 %54, 0
  br i1 %55, label %.lr.ph.i.i, label %._crit_edge.i.i

.lr.ph.i.i:                                       ; preds = %.preheader.i.i
  %56 = getelementptr inbounds i8, ptr %22, i64 48
  br label %57

57:                                               ; preds = %63, %.lr.ph.i.i
  %58 = phi i32 [ %54, %.lr.ph.i.i ], [ %64, %63 ]
  %indvars.iv.i.i = phi i64 [ 0, %.lr.ph.i.i ], [ %indvars.iv.next.i.i, %63 ]
  %59 = load ptr, ptr %56, align 8
  %60 = getelementptr inbounds ptr, ptr %59, i64 %indvars.iv.i.i
  %61 = load ptr, ptr %60, align 8
  %.not36.i.i = icmp eq ptr %61, null
  br i1 %.not36.i.i, label %63, label %62

62:                                               ; preds = %57
  tail call void @_Z9save_freePKcS0_iPv(ptr noundef nonnull @.str.17, ptr noundef nonnull @.str.9, i32 noundef 157, ptr noundef nonnull %61)
  %.pre.i.i = load i32, ptr %53, align 4
  br label %63

63:                                               ; preds = %62, %57
  %64 = phi i32 [ %58, %57 ], [ %.pre.i.i, %62 ]
  %indvars.iv.next.i.i = add nuw nsw i64 %indvars.iv.i.i, 1
  %65 = sext i32 %64 to i64
  %66 = icmp slt i64 %indvars.iv.next.i.i, %65
  br i1 %66, label %57, label %._crit_edge.i.i, !llvm.loop !5

._crit_edge.i.i:                                  ; preds = %63, %.preheader.i.i
  %67 = getelementptr inbounds i8, ptr %22, i64 48
  %68 = load ptr, ptr %67, align 8
  tail call void @_Z9save_freePKcS0_iPv(ptr noundef nonnull @.str.18, ptr noundef nonnull @.str.9, i32 noundef 160, ptr noundef %68)
  store i32 0, ptr %53, align 4
  store ptr null, ptr %67, align 8
  br label %_ZL16enxsubblock_freeP13t_enxsubblock.exit.i

_ZL16enxsubblock_freeP13t_enxsubblock.exit.i:     ; preds = %._crit_edge.i.i, %52
  %indvars.iv.next.i = add nuw nsw i64 %indvars.iv.i, 1
  %69 = load i32, ptr %16, align 8
  %70 = sext i32 %69 to i64
  %71 = icmp slt i64 %indvars.iv.next.i, %70
  br i1 %71, label %20, label %._crit_edge.i, !llvm.loop !7

._crit_edge.i:                                    ; preds = %_ZL16enxsubblock_freeP13t_enxsubblock.exit.i
  %72 = load ptr, ptr %19, align 8
  tail call void @_Z9save_freePKcS0_iPv(ptr noundef nonnull @.str.11, ptr noundef nonnull @.str.9, i32 noundef 241, ptr noundef %72)
  store i32 0, ptr %16, align 8
  store ptr null, ptr %19, align 8
  %.pre = load i32, ptr %8, align 8
  br label %_ZL13enxblock_freeP10t_enxblock.exit

_ZL13enxblock_freeP10t_enxblock.exit:             ; preds = %12, %._crit_edge.i
  %73 = phi i32 [ %13, %12 ], [ %.pre, %._crit_edge.i ]
  %indvars.iv.next = add nuw nsw i64 %indvars.iv, 1
  %74 = sext i32 %73 to i64
  %75 = icmp slt i64 %indvars.iv.next, %74
  br i1 %75, label %12, label %._crit_edge, !llvm.loop !8

._crit_edge:                                      ; preds = %_ZL13enxblock_freeP10t_enxblock.exit, %7
  %76 = getelementptr inbounds i8, ptr %0, i64 64
  %77 = load ptr, ptr %76, align 8
  tail call void @_Z9save_freePKcS0_iPv(ptr noundef nonnull @.str.10, ptr noundef nonnull @.str.9, i32 noundef 273, ptr noundef %77)
  ret void
}